; Function Attrs: mustprogress uwtable
define { double, i32 } @llama_perf_sampler(ptr noundef readonly %0) local_unnamed_addr #0 {
  %2 = icmp eq ptr %0, null
  br i1 %2, label %5, label %3

3:                                                ; preds = %1
  %4 = load ptr, ptr %0, align 8, !tbaa !3
  %.not = icmp eq ptr %4, @_ZL21llama_sampler_chain_i
  br i1 %.not, label %6, label %5

5:                                                ; preds = %3, %1
  tail call void (ptr, i32, ptr, ...) @ggml_abort(ptr noundef nonnull @.str.1, i32 noundef 2498, ptr noundef nonnull @.str.12, ptr noundef nonnull @__func__.llama_perf_sampler) #31
  unreachable

6:                                                ; preds = %3
  %7 = getelementptr inbounds nuw i8, ptr %0, i64 8
  %8 = load ptr, ptr %7, align 8, !tbaa !9
  %9 = getelementptr inbounds nuw i8, ptr %8, i64 32
  %10 = load i64, ptr %9, align 8, !tbaa !201
  %11 = sitofp i64 %10 to double
  %12 = fmul double %11, 1.000000e-03
  %13 = getelementptr inbounds nuw i8, ptr %8, i64 40
  %14 = load i32, ptr %13, align 4, !tbaa !27
  %.sroa.speculated = tail call i32 @llvm.smax.i32(i32 %14, i32 0)
  %.fca.0.insert = insertvalue { double, i32 } poison, double %12, 0
  %.fca.1.insert = insertvalue { double, i32 } %.fca.0.insert, i32 %.sroa.speculated, 1
  ret { double, i32 } %.fca.1.insert
}